; ModuleID = 'bench/linux/original/init.ll'
source_filename = "bench/linux/original/init.ll"
target datalayout = "e-m:e-p270:32:32-p271:32:32-p272:64:64-i64:64-i128:128-f80:128-n8:16:32:64-S128"
target triple = "x86_64-unknown-linux-gnu"

module asm ".section\09\22.initcall3.init\22, \22a\22\09\09"
module asm "__initcall__kmod_init__352_51_pci_arch_init3:\09\09\09"
module asm ".long\09pci_arch_init - .\09"
module asm ".previous\09\09\09\09\09"

%struct.x86_init_ops = type { %struct.x86_init_resources, %struct.x86_init_mpparse, %struct.x86_init_irqs, %struct.x86_init_oem, %struct.x86_init_paging, %struct.x86_init_timers, %struct.x86_init_iommu, %struct.x86_init_pci, %struct.x86_hyper_init, %struct.x86_init_acpi }
%struct.x86_init_resources = type { ptr, ptr, ptr }
%struct.x86_init_mpparse = type { ptr, ptr, ptr }
%struct.x86_init_irqs = type { ptr, ptr, ptr, ptr, ptr }
%struct.x86_init_oem = type { ptr, ptr }
%struct.x86_init_paging = type { ptr }
%struct.x86_init_timers = type { ptr, ptr, ptr }
%struct.x86_init_iommu = type { ptr }
%struct.x86_init_pci = type { ptr, ptr, ptr, ptr }
%struct.x86_hyper_init = type { ptr, ptr, ptr, ptr, ptr, ptr }
%struct.x86_init_acpi = type { ptr, ptr, ptr }

@__UNIQUE_ID___addressable_pci_arch_init353 = internal global ptr @pci_arch_init, section ".discard.addressable", align 8
@pci_probe = external dso_local local_unnamed_addr global i32, align 4
@x86_init = external dso_local local_unnamed_addr global %struct.x86_init_ops, align 8
@raw_pci_ops = external dso_local local_unnamed_addr global ptr, align 8
@raw_pci_ext_ops = external dso_local local_unnamed_addr global ptr, align 8
@.str = private unnamed_addr constant [53 x i8] c"\013PCI: Fatal: No config space access function found\0A\00", align 1
@llvm.compiler.used = appending global [1 x ptr] [ptr @__UNIQUE_ID___addressable_pci_arch_init353], section "llvm.metadata"

; Function Attrs: cold fn_ret_thunk_extern nounwind null_pointer_is_valid optsize
define internal noundef i32 @pci_arch_init() #0 section ".init.text" align 16 {
  %1 = tail call i32 @pci_direct_probe() #3
  %2 = load i32, ptr @pci_probe, align 4
  %3 = and i32 %2, 16
  %4 = icmp eq i32 %3, 0
  br i1 %4, label %5, label %6

5:                                                ; preds = %0
  tail call void @pci_mmcfg_early_init() #4
  br label %6

6:                                                ; preds = %5, %0
  %7 = load ptr, ptr getelementptr inbounds (%struct.x86_init_ops, ptr @x86_init, i64 0, i32 7), align 8
  %8 = icmp eq ptr %7, null
  br i1 %8, label %12, label %9

9:                                                ; preds = %6
  %10 = tail call i32 %7() #3
  %11 = icmp eq i32 %10, 0
  tail call void @x86_create_pci_msi_domain() #3
  br i1 %11, label %22, label %13

12:                                               ; preds = %6
  tail call void @x86_create_pci_msi_domain() #3
  br label %13

13:                                               ; preds = %12, %9
  tail call void @pci_direct_init(i32 noundef %1) #3
  %14 = load ptr, ptr @raw_pci_ops, align 8
  %15 = icmp ne ptr %14, null
  %16 = load ptr, ptr @raw_pci_ext_ops, align 8
  %17 = icmp ne ptr %16, null
  %18 = select i1 %15, i1 true, i1 %17
  br i1 %18, label %21, label %19

19:                                               ; preds = %13
  %20 = tail call i32 (ptr, ...) @_printk(ptr noundef nonnull @.str) #4
  br label %21

21:                                               ; preds = %19, %13
  tail call void @dmi_check_pciprobe() #4
  tail call void @dmi_check_skip_isa_align() #4
  br label %22

22:                                               ; preds = %21, %9
  ret i32 0
}

; Function Attrs: null_pointer_is_valid
declare dso_local i32 @pci_direct_probe() local_unnamed_addr #1

; Function Attrs: cold null_pointer_is_valid
declare dso_local void @pci_mmcfg_early_init() local_unnamed_addr #2 section ".init.text"

; Function Attrs: null_pointer_is_valid
declare dso_local void @x86_create_pci_msi_domain() local_unnamed_addr #1

; Function Attrs: null_pointer_is_valid
declare dso_local void @pci_direct_init(i32 noundef) local_unnamed_addr #1

; Function Attrs: cold null_pointer_is_valid
declare dso_local i32 @_printk(ptr noundef, ...) local_unnamed_addr #2

; Function Attrs: cold null_pointer_is_valid
declare dso_local void @dmi_check_pciprobe() local_unnamed_addr #2 section ".init.text"

; Function Attrs: cold null_pointer_is_valid
declare dso_local void @dmi_check_skip_isa_align() local_unnamed_addr #2 section ".init.text"


!llvm.module.flags = !{!0, !1, !2, !3, !4}

!0 = !{i32 1, !"wchar_size", i32 2}
!1 = !{i32 8, !"cf-protection-branch", i32 1}
!2 = !{i32 4, !"function_return_thunk_extern", i32 1}
!3 = !{i32 4, !"indirect_branch_cs_prefix", i32 1}
!4 = !{i32 4, !"SkipRaxSetup", i32 1}
